target datalayout = "e-m:e-p270:32:32-p271:32:32-p272:64:64-i64:64-i128:128-f80:128-n8:16:32:64-S128"
target triple = "x86_64-pc-linux-gnu"

%struct._object = type { %union.anon, ptr }
%union.anon = type { i64 }
%struct.PyGetSetDef = type { ptr, ptr, ptr, ptr, ptr }
%struct.PyDescrObject = type { %struct._object, ptr, ptr, ptr }
%struct.PyGetSetDescrObject = type { %struct.PyDescrObject, ptr }
%struct.anon = type { i32, i32 }

; Function Attrs: alwaysinline nounwind uwtable
define internal void @Py_INCREF(ptr noundef %0) #4 {
  %2 = alloca ptr, align 8
  %3 = alloca i32, align 4
  %4 = alloca i32, align 4
  store ptr %0, ptr %2, align 8, !tbaa !4
  call void @llvm.lifetime.start.p0(i64 4, ptr %3) #6
  %5 = load ptr, ptr %2, align 8, !tbaa !4
  %6 = getelementptr inbounds nuw %struct._object, ptr %5, i32 0, i32 0
  %7 = getelementptr inbounds nuw %struct.anon, ptr %6, i32 0, i32 0
  %8 = load i32, ptr %7, align 8, !tbaa !159
  store i32 %8, ptr %3, align 4, !tbaa !16
  %9 = load i32, ptr %3, align 4, !tbaa !16
  %10 = icmp slt i32 %9, 0
  br i1 %10, label %11, label %12

11:                                               ; preds = %1
  store i32 1, ptr %4, align 4
  br label %18

12:                                               ; preds = %1
  %13 = load i32, ptr %3, align 4, !tbaa !16
  %14 = add i32 %13, 1
  %15 = load ptr, ptr %2, align 8, !tbaa !4
  %16 = getelementptr inbounds nuw %struct._object, ptr %15, i32 0, i32 0
  %17 = getelementptr inbounds nuw %struct.anon, ptr %16, i32 0, i32 0
  store i32 %14, ptr %17, align 8, !tbaa !159
  store i32 0, ptr %4, align 4
  br label %18

18:                                               ; preds = %12, %11
  call void @llvm.lifetime.end.p0(i64 4, ptr %3) #6
  %19 = load i32, ptr %4, align 4
  switch i32 %19, label %21 [
    i32 0, label %20
    i32 1, label %20
  ]

20:                                               ; preds = %18, %18
  ret void

21:                                               ; preds = %18
  unreachable
}

; Function Attrs: alwaysinline nounwind uwtable
define internal i32 @_Py_IsImmortal(ptr noundef %0) #4 {
  %2 = alloca ptr, align 8
  store ptr %0, ptr %2, align 8, !tbaa !4
  %3 = load ptr, ptr %2, align 8, !tbaa !4
  %4 = getelementptr inbounds nuw %struct._object, ptr %3, i32 0, i32 0
  %5 = getelementptr inbounds nuw %struct.anon, ptr %4, i32 0, i32 0
  %6 = load i32, ptr %5, align 8, !tbaa !159
  %7 = icmp slt i32 %6, 0
  %8 = zext i1 %7 to i32
  ret i32 %8
}

; Function Attrs: inlinehint nounwind uwtable
define internal void @Py_XINCREF(ptr noundef %0) #3 {
  %2 = alloca ptr, align 8
  store ptr %0, ptr %2, align 8, !tbaa !4
  %3 = load ptr, ptr %2, align 8, !tbaa !4
  %4 = icmp ne ptr %3, null
  br i1 %4, label %5, label %7

5:                                                ; preds = %1
  %6 = load ptr, ptr %2, align 8, !tbaa !4
  call void @Py_INCREF(ptr noundef %6)
  br label %7

7:                                                ; preds = %5, %1
  ret void
}

; Function Attrs: alwaysinline nounwind uwtable
define internal void @Py_DECREF(ptr noundef %0) #4 {
  %2 = alloca ptr, align 8
  store ptr %0, ptr %2, align 8, !tbaa !4
  %3 = load ptr, ptr %2, align 8, !tbaa !4
  %4 = call i32 @_Py_IsImmortal(ptr noundef %3)
  %5 = icmp ne i32 %4, 0
  br i1 %5, label %6, label %7

6:                                                ; preds = %1
  br label %16

7:                                                ; preds = %1
  %8 = load ptr, ptr %2, align 8, !tbaa !4
  %9 = getelementptr inbounds nuw %struct._object, ptr %8, i32 0, i32 0
  %10 = getelementptr inbounds nuw %struct.anon, ptr %9, i32 0, i32 0
  %11 = load i32, ptr %10, align 8, !tbaa !159
  %12 = add i32 %11, -1
  store i32 %12, ptr %10, align 8, !tbaa !159
  %13 = icmp eq i32 %12, 0
  br i1 %13, label %14, label %16

14:                                               ; preds = %7
  %15 = load ptr, ptr %2, align 8, !tbaa !4
  call void @_Py_Dealloc(ptr noundef %15)
  br label %16

16:                                               ; preds = %6, %14, %7
  ret void
}

; Function Attrs: inlinehint nounwind uwtable
define internal ptr @_Py_XNewRef(ptr noundef %0) #3 {
  %2 = alloca ptr, align 8
  store ptr %0, ptr %2, align 8, !tbaa !4
  %3 = load ptr, ptr %2, align 8, !tbaa !4
  call void @Py_XINCREF(ptr noundef %3)
  %4 = load ptr, ptr %2, align 8, !tbaa !4
  ret ptr %4
}

; Function Attrs: nounwind uwtable
define internal ptr @descr_new(ptr noundef %0, ptr noundef %1, ptr noundef %2) #0 {
  %4 = alloca ptr, align 8
  %5 = alloca ptr, align 8
  %6 = alloca ptr, align 8
  %7 = alloca ptr, align 8
  %8 = alloca ptr, align 8
  %9 = alloca ptr, align 8
  store ptr %0, ptr %4, align 8, !tbaa !33
  store ptr %1, ptr %5, align 8, !tbaa !33
  store ptr %2, ptr %6, align 8, !tbaa !52
  call void @llvm.lifetime.start.p0(i64 8, ptr %7) #6
  %10 = load ptr, ptr %4, align 8, !tbaa !33
  %11 = call ptr @PyType_GenericAlloc(ptr noundef %10, i64 noundef 0)
  store ptr %11, ptr %7, align 8, !tbaa !9
  %12 = load ptr, ptr %7, align 8, !tbaa !9
  %13 = icmp ne ptr %12, null
  br i1 %13, label %14, label %40

14:                                               ; preds = %3
  %15 = load ptr, ptr %7, align 8, !tbaa !9
  call void @_PyObject_SetDeferredRefcount(ptr noundef %15)
  %16 = load ptr, ptr %5, align 8, !tbaa !33
  %17 = call ptr @_Py_XNewRef(ptr noundef %16)
  %18 = load ptr, ptr %7, align 8, !tbaa !9
  %19 = getelementptr inbounds nuw %struct.PyDescrObject, ptr %18, i32 0, i32 1
  store ptr %17, ptr %19, align 8, !tbaa !10
  %20 = load ptr, ptr %6, align 8, !tbaa !52
  %21 = call ptr @PyUnicode_InternFromString(ptr noundef %20)
  %22 = load ptr, ptr %7, align 8, !tbaa !9
  %23 = getelementptr inbounds nuw %struct.PyDescrObject, ptr %22, i32 0, i32 2
  store ptr %21, ptr %23, align 8, !tbaa !14
  %24 = load ptr, ptr %7, align 8, !tbaa !9
  %25 = getelementptr inbounds nuw %struct.PyDescrObject, ptr %24, i32 0, i32 2
  %26 = load ptr, ptr %25, align 8, !tbaa !14
  %27 = icmp eq ptr %26, null
  br i1 %27, label %28, label %36

28:                                               ; preds = %14
  br label %29

29:                                               ; preds = %28
  call void @llvm.lifetime.start.p0(i64 8, ptr %8) #6
  store ptr %7, ptr %8, align 8, !tbaa !9
  call void @llvm.lifetime.start.p0(i64 8, ptr %9) #6
  %30 = load ptr, ptr %8, align 8, !tbaa !9
  %31 = load ptr, ptr %30, align 8, !tbaa !9
  store ptr %31, ptr %9, align 8, !tbaa !9
  %32 = load ptr, ptr %8, align 8, !tbaa !9
  store ptr null, ptr %32, align 8, !tbaa !9
  %33 = load ptr, ptr %9, align 8, !tbaa !9
  call void @Py_DECREF(ptr noundef %33)
  call void @llvm.lifetime.end.p0(i64 8, ptr %9) #6
  call void @llvm.lifetime.end.p0(i64 8, ptr %8) #6
  br label %34

34:                                               ; preds = %29
  br label %35

35:                                               ; preds = %34
  br label %39

36:                                               ; preds = %14
  %37 = load ptr, ptr %7, align 8, !tbaa !9
  %38 = getelementptr inbounds nuw %struct.PyDescrObject, ptr %37, i32 0, i32 3
  store ptr null, ptr %38, align 8, !tbaa !15
  br label %39

39:                                               ; preds = %36, %35
  br label %40

40:                                               ; preds = %39, %3
  %41 = load ptr, ptr %7, align 8, !tbaa !9
  call void @llvm.lifetime.end.p0(i64 8, ptr %7) #6
  ret ptr %41
}

; Function Attrs: nounwind uwtable
define dso_local ptr @PyDescr_NewGetSet(ptr noundef %0, ptr noundef %1) #0 {
  %3 = alloca ptr, align 8
  %4 = alloca ptr, align 8
  %5 = alloca ptr, align 8
  store ptr %0, ptr %3, align 8, !tbaa !33
  store ptr %1, ptr %4, align 8, !tbaa !54
  call void @llvm.lifetime.start.p0(i64 8, ptr %5) #6
  %6 = load ptr, ptr %3, align 8, !tbaa !33
  %7 = load ptr, ptr %4, align 8, !tbaa !54
  %8 = getelementptr inbounds nuw %struct.PyGetSetDef, ptr %7, i32 0, i32 0
  %9 = load ptr, ptr %8, align 8, !tbaa !55
  %10 = call ptr @descr_new(ptr noundef @PyGetSetDescr_Type, ptr noundef %6, ptr noundef %9)
  store ptr %10, ptr %5, align 8, !tbaa !9
  %11 = load ptr, ptr %5, align 8, !tbaa !9
  %12 = icmp ne ptr %11, null
  br i1 %12, label %13, label %17

13:                                               ; preds = %2
  %14 = load ptr, ptr %4, align 8, !tbaa !54
  %15 = load ptr, ptr %5, align 8, !tbaa !9
  %16 = getelementptr inbounds nuw %struct.PyGetSetDescrObject, ptr %15, i32 0, i32 1
  store ptr %14, ptr %16, align 8, !tbaa !39
  br label %17

17:                                               ; preds = %13, %2
  %18 = load ptr, ptr %5, align 8, !tbaa !9
  call void @llvm.lifetime.end.p0(i64 8, ptr %5) #6
  ret ptr %18
}