; Function Attrs: nounwind uwtable
define dso_local ptr @PyDescr_NewGetSet(ptr noundef %0, ptr noundef %1) local_unnamed_addr #0 {
  %3 = load ptr, ptr %1, align 8, !tbaa !146
  %4 = tail call ptr @PyType_GenericAlloc(ptr noundef nonnull @PyGetSetDescr_Type, i64 noundef 0) #9
  %.not.i = icmp eq ptr %4, null
  br i1 %.not.i, label %descr_new.exit.thread, label %5

5:                                                ; preds = %2
  tail call void @_PyObject_SetDeferredRefcount(ptr noundef nonnull %4) #9
  %.not.i.i.i = icmp eq ptr %0, null
  br i1 %.not.i.i.i, label %_Py_XNewRef.exit.i, label %6

6:                                                ; preds = %5
  %7 = load i32, ptr %0, align 8, !tbaa !16
  %8 = icmp slt i32 %7, 0
  br i1 %8, label %_Py_XNewRef.exit.i, label %9

9:                                                ; preds = %6
  %10 = add nuw i32 %7, 1
  store i32 %10, ptr %0, align 8, !tbaa !16
  br label %_Py_XNewRef.exit.i

_Py_XNewRef.exit.i:                               ; preds = %9, %6, %5
  %11 = getelementptr inbounds nuw i8, ptr %4, i64 16
  store ptr %0, ptr %11, align 8, !tbaa !10
  %12 = tail call ptr @PyUnicode_InternFromString(ptr noundef %3) #9
  %13 = getelementptr inbounds nuw i8, ptr %4, i64 24
  store ptr %12, ptr %13, align 8, !tbaa !17
  %14 = icmp eq ptr %12, null
  br i1 %14, label %15, label %21

15:                                               ; preds = %_Py_XNewRef.exit.i
  %16 = load i32, ptr %4, align 8, !tbaa !16
  %.not.i.i = icmp sgt i32 %16, -1
  br i1 %.not.i.i, label %17, label %descr_new.exit.thread

17:                                               ; preds = %15
  %18 = add nsw i32 %16, -1
  store i32 %18, ptr %4, align 8, !tbaa !16
  %19 = icmp eq i32 %18, 0
  br i1 %19, label %20, label %descr_new.exit.thread

20:                                               ; preds = %17
  tail call void @_Py_Dealloc(ptr noundef nonnull %4) #9
  br label %descr_new.exit.thread

21:                                               ; preds = %_Py_XNewRef.exit.i
  %22 = getelementptr inbounds nuw i8, ptr %4, i64 32
  store ptr null, ptr %22, align 8, !tbaa !18
  %23 = getelementptr inbounds nuw i8, ptr %4, i64 40
  store ptr %1, ptr %23, align 8, !tbaa !42
  br label %descr_new.exit.thread

descr_new.exit.thread:                            ; preds = %20, %17, %15, %2, %21
  %.0.i8 = phi ptr [ %4, %21 ], [ null, %2 ], [ null, %15 ], [ null, %17 ], [ null, %20 ]
  ret ptr %.0.i8
}